; Function Attrs: nounwind uwtable
define void @b2RevoluteJoint_EnableLimit(i64 %0, i1 noundef zeroext %1) local_unnamed_addr #0 {
  %3 = tail call ptr @b2GetJointSimCheckType(i64 %0, i32 noundef 5) #10
  %4 = getelementptr inbounds nuw i8, ptr %3, i64 154
  %5 = load i8, ptr %4, align 2, !tbaa !3, !range !6, !noundef !7
  %6 = zext i1 %1 to i8
  %.not = icmp eq i8 %5, %6
  br i1 %.not, label %10, label %7

7:                                                ; preds = %2
  store i8 %6, ptr %4, align 2, !tbaa !3
  %8 = getelementptr inbounds nuw i8, ptr %3, i64 64
  store float 0.000000e+00, ptr %8, align 4, !tbaa !3
  %9 = getelementptr inbounds nuw i8, ptr %3, i64 68
  store float 0.000000e+00, ptr %9, align 4, !tbaa !3
  br label %10

10:                                               ; preds = %7, %2
  ret void
}